ccopy_reg
_reconstructor
p0
(cgoogle.oauth2.credentials
Credentials
p1
c__builtin__
object
p2
Ntp3
Rp4
(dp5
S'_token_uri'
p6
Vhttps://oauth2.googleapis.com/token
p7
sS'_scopes'
p8
(lp9
S'https://www.googleapis.com/auth/spreadsheets.readonly'
p10
asS'_id_token'
p11
NsS'token'
p12
Vya29.Glv1Bo2HLOkIL0YiFN40lTGx5unqnIVkK59QvwTFkLRF3BJFZDunw5Akx4zc0cjU9qrtbToKsMYaCl11aeLuo5NKDNs8mODgl_B8tIYYfG6HdlYt-acp7GRZn7yH
p13
sS'_refresh_token'
p14
V1/KsAAx7l53072Fq1dg0tjd-iPHDoaLVme1z9o45v5XUs
p15
sS'_client_secret'
p16
Vh0g6FD3Q_-Q1-LNWM_L5dzvd
p17
sS'_client_id'
p18
V621112789056-17l9g703t6rp5u76t0d3vm13nug8209m.apps.googleusercontent.com
p19
sS'expiry'
p20
cdatetime
datetime
p21
(S'\x07\xe3\x04\x17\x16+\x01\x03<\x92'
p22
tp23
Rp24
sb.